target datalayout = "e-m:e-p270:32:32-p271:32:32-p272:64:64-i64:64-i128:128-f80:128-n8:16:32:64-S128"
target triple = "x86_64-pc-linux-gnu"

%struct.bf_context_t = type { ptr, ptr, %struct.BFConstCache, %struct.BFConstCache, ptr }
%struct.BFConstCache = type { %struct.bf_t, i64 }
%struct.bf_t = type { ptr, i32, i64, i64, ptr }

; Function Attrs: inlinehint nounwind uwtable
define internal i32 @clz64(i64 noundef %0) #3 {
  %2 = alloca i64, align 8
  store i64 %0, ptr %2, align 8, !tbaa !27
  %3 = load i64, ptr %2, align 8, !tbaa !27
  %4 = call i64 @llvm.ctlz.i64(i64 %3, i1 true)
  %5 = trunc i64 %4 to i32
  ret i32 %5
}

; Function Attrs: inlinehint nounwind uwtable
define internal ptr @bf_realloc(ptr noundef %0, ptr noundef %1, i64 noundef %2) #3 {
  %4 = alloca ptr, align 8
  %5 = alloca ptr, align 8
  %6 = alloca i64, align 8
  store ptr %0, ptr %4, align 8, !tbaa !7
  store ptr %1, ptr %5, align 8, !tbaa !12
  store i64 %2, ptr %6, align 8, !tbaa !27
  %7 = load ptr, ptr %4, align 8, !tbaa !7
  %8 = getelementptr inbounds nuw %struct.bf_context_t, ptr %7, i32 0, i32 1
  %9 = load ptr, ptr %8, align 8, !tbaa !13
  %10 = load ptr, ptr %4, align 8, !tbaa !7
  %11 = getelementptr inbounds nuw %struct.bf_context_t, ptr %10, i32 0, i32 0
  %12 = load ptr, ptr %11, align 8, !tbaa !21
  %13 = load ptr, ptr %5, align 8, !tbaa !12
  %14 = load i64, ptr %6, align 8, !tbaa !27
  %15 = call ptr %9(ptr noundef %12, ptr noundef %13, i64 noundef %14)
  ret ptr %15
}

; Function Attrs: nounwind uwtable
define dso_local void @bf_set_nan(ptr noundef %0) #0 {
  %2 = alloca ptr, align 8
  store ptr %0, ptr %2, align 8, !tbaa !12
  %3 = load ptr, ptr %2, align 8, !tbaa !12
  %4 = call i32 @bf_resize(ptr noundef %3, i64 noundef 0)
  %5 = load ptr, ptr %2, align 8, !tbaa !12
  %6 = getelementptr inbounds nuw %struct.bf_t, ptr %5, i32 0, i32 2
  store i64 9223372036854775807, ptr %6, align 8, !tbaa !24
  %7 = load ptr, ptr %2, align 8, !tbaa !12
  %8 = getelementptr inbounds nuw %struct.bf_t, ptr %7, i32 0, i32 1
  store i32 0, ptr %8, align 8, !tbaa !23
  ret void
}

; Function Attrs: inlinehint nounwind uwtable
define internal i32 @clz(i64 noundef %0) #3 {
  %2 = alloca i32, align 4
  %3 = alloca i64, align 8
  store i64 %0, ptr %3, align 8, !tbaa !27
  %4 = load i64, ptr %3, align 8, !tbaa !27
  %5 = icmp eq i64 %4, 0
  br i1 %5, label %6, label %7

6:                                                ; preds = %1
  store i32 64, ptr %2, align 4
  br label %10

7:                                                ; preds = %1
  %8 = load i64, ptr %3, align 8, !tbaa !27
  %9 = call i32 @clz64(i64 noundef %8)
  store i32 %9, ptr %2, align 4
  br label %10

10:                                               ; preds = %7, %6
  %11 = load i32, ptr %2, align 4
  ret i32 %11
}

; Function Attrs: nounwind uwtable
define dso_local i32 @bf_resize(ptr noundef %0, i64 noundef %1) #0 {
  %3 = alloca i32, align 4
  %4 = alloca ptr, align 8
  %5 = alloca i64, align 8
  %6 = alloca ptr, align 8
  %7 = alloca i32, align 4
  store ptr %0, ptr %4, align 8, !tbaa !12
  store i64 %1, ptr %5, align 8, !tbaa !27
  call void @llvm.lifetime.start.p0(i64 8, ptr %6) #10
  %8 = load i64, ptr %5, align 8, !tbaa !27
  %9 = load ptr, ptr %4, align 8, !tbaa !12
  %10 = getelementptr inbounds nuw %struct.bf_t, ptr %9, i32 0, i32 3
  %11 = load i64, ptr %10, align 8, !tbaa !25
  %12 = icmp ne i64 %8, %11
  br i1 %12, label %13, label %36

13:                                               ; preds = %2
  %14 = load ptr, ptr %4, align 8, !tbaa !12
  %15 = getelementptr inbounds nuw %struct.bf_t, ptr %14, i32 0, i32 0
  %16 = load ptr, ptr %15, align 8, !tbaa !22
  %17 = load ptr, ptr %4, align 8, !tbaa !12
  %18 = getelementptr inbounds nuw %struct.bf_t, ptr %17, i32 0, i32 4
  %19 = load ptr, ptr %18, align 8, !tbaa !26
  %20 = load i64, ptr %5, align 8, !tbaa !27
  %21 = mul i64 %20, 8
  %22 = call ptr @bf_realloc(ptr noundef %16, ptr noundef %19, i64 noundef %21)
  store ptr %22, ptr %6, align 8, !tbaa !28
  %23 = load ptr, ptr %6, align 8, !tbaa !28
  %24 = icmp ne ptr %23, null
  br i1 %24, label %29, label %25

25:                                               ; preds = %13
  %26 = load i64, ptr %5, align 8, !tbaa !27
  %27 = icmp ne i64 %26, 0
  br i1 %27, label %28, label %29

28:                                               ; preds = %25
  store i32 -1, ptr %3, align 4
  store i32 1, ptr %7, align 4
  br label %37

29:                                               ; preds = %25, %13
  %30 = load ptr, ptr %6, align 8, !tbaa !28
  %31 = load ptr, ptr %4, align 8, !tbaa !12
  %32 = getelementptr inbounds nuw %struct.bf_t, ptr %31, i32 0, i32 4
  store ptr %30, ptr %32, align 8, !tbaa !26
  %33 = load i64, ptr %5, align 8, !tbaa !27
  %34 = load ptr, ptr %4, align 8, !tbaa !12
  %35 = getelementptr inbounds nuw %struct.bf_t, ptr %34, i32 0, i32 3
  store i64 %33, ptr %35, align 8, !tbaa !25
  br label %36

36:                                               ; preds = %29, %2
  store i32 0, ptr %3, align 4
  store i32 1, ptr %7, align 4
  br label %37

37:                                               ; preds = %36, %28
  call void @llvm.lifetime.end.p0(i64 8, ptr %6) #10
  %38 = load i32, ptr %3, align 4
  ret i32 %38
}

; Function Attrs: inlinehint nounwind uwtable
define internal void @bf_delete(ptr noundef %0) #3 {
  %2 = alloca ptr, align 8
  %3 = alloca ptr, align 8
  store ptr %0, ptr %2, align 8, !tbaa !12
  call void @llvm.lifetime.start.p0(i64 8, ptr %3) #10
  %4 = load ptr, ptr %2, align 8, !tbaa !12
  %5 = getelementptr inbounds nuw %struct.bf_t, ptr %4, i32 0, i32 0
  %6 = load ptr, ptr %5, align 8, !tbaa !22
  store ptr %6, ptr %3, align 8, !tbaa !7
  %7 = load ptr, ptr %3, align 8, !tbaa !7
  %8 = icmp ne ptr %7, null
  br i1 %8, label %9, label %20

9:                                                ; preds = %1
  %10 = load ptr, ptr %2, align 8, !tbaa !12
  %11 = getelementptr inbounds nuw %struct.bf_t, ptr %10, i32 0, i32 4
  %12 = load ptr, ptr %11, align 8, !tbaa !26
  %13 = icmp ne ptr %12, null
  br i1 %13, label %14, label %20

14:                                               ; preds = %9
  %15 = load ptr, ptr %3, align 8, !tbaa !7
  %16 = load ptr, ptr %2, align 8, !tbaa !12
  %17 = getelementptr inbounds nuw %struct.bf_t, ptr %16, i32 0, i32 4
  %18 = load ptr, ptr %17, align 8, !tbaa !26
  %19 = call ptr @bf_realloc(ptr noundef %15, ptr noundef %18, i64 noundef 0)
  br label %20

20:                                               ; preds = %14, %9, %1
  call void @llvm.lifetime.end.p0(i64 8, ptr %3) #10
  ret void
}

; Function Attrs: nounwind uwtable
define dso_local i32 @bf_set_ui(ptr noundef %0, i64 noundef %1) #0 {
  %3 = alloca i32, align 4
  %4 = alloca ptr, align 8
  %5 = alloca i64, align 8
  %6 = alloca i32, align 4
  %7 = alloca i32, align 4
  store ptr %0, ptr %4, align 8, !tbaa !12
  store i64 %1, ptr %5, align 8, !tbaa !27
  %8 = load ptr, ptr %4, align 8, !tbaa !12
  %9 = getelementptr inbounds nuw %struct.bf_t, ptr %8, i32 0, i32 1
  store i32 0, ptr %9, align 8, !tbaa !23
  %10 = load i64, ptr %5, align 8, !tbaa !27
  %11 = icmp eq i64 %10, 0
  br i1 %11, label %12, label %17

12:                                               ; preds = %2
  %13 = load ptr, ptr %4, align 8, !tbaa !12
  %14 = getelementptr inbounds nuw %struct.bf_t, ptr %13, i32 0, i32 2
  store i64 -9223372036854775808, ptr %14, align 8, !tbaa !24
  %15 = load ptr, ptr %4, align 8, !tbaa !12
  %16 = call i32 @bf_resize(ptr noundef %15, i64 noundef 0)
  br label %41

17:                                               ; preds = %2
  call void @llvm.lifetime.start.p0(i64 4, ptr %6) #10
  %18 = load ptr, ptr %4, align 8, !tbaa !12
  %19 = call i32 @bf_resize(ptr noundef %18, i64 noundef 1)
  %20 = icmp ne i32 %19, 0
  br i1 %20, label %21, label %22

21:                                               ; preds = %17
  store i32 2, ptr %7, align 4
  br label %38

22:                                               ; preds = %17
  %23 = load i64, ptr %5, align 8, !tbaa !27
  %24 = call i32 @clz(i64 noundef %23)
  store i32 %24, ptr %6, align 4, !tbaa !29
  %25 = load i64, ptr %5, align 8, !tbaa !27
  %26 = load i32, ptr %6, align 4, !tbaa !29
  %27 = zext i32 %26 to i64
  %28 = shl i64 %25, %27
  %29 = load ptr, ptr %4, align 8, !tbaa !12
  %30 = getelementptr inbounds nuw %struct.bf_t, ptr %29, i32 0, i32 4
  %31 = load ptr, ptr %30, align 8, !tbaa !26
  %32 = getelementptr inbounds i64, ptr %31, i64 0
  store i64 %28, ptr %32, align 8, !tbaa !27
  %33 = load i32, ptr %6, align 4, !tbaa !29
  %34 = sub i32 64, %33
  %35 = sext i32 %34 to i64
  %36 = load ptr, ptr %4, align 8, !tbaa !12
  %37 = getelementptr inbounds nuw %struct.bf_t, ptr %36, i32 0, i32 2
  store i64 %35, ptr %37, align 8, !tbaa !24
  store i32 0, ptr %7, align 4
  br label %38

38:                                               ; preds = %21, %22
  call void @llvm.lifetime.end.p0(i64 4, ptr %6) #10
  %39 = load i32, ptr %7, align 4
  switch i32 %39, label %46 [
    i32 0, label %40
    i32 2, label %42
  ]

40:                                               ; preds = %38
  br label %41

41:                                               ; preds = %40, %12
  store i32 0, ptr %3, align 4
  br label %44

42:                                               ; preds = %38
  %43 = load ptr, ptr %4, align 8, !tbaa !12
  call void @bf_set_nan(ptr noundef %43)
  store i32 32, ptr %3, align 4
  br label %44

44:                                               ; preds = %42, %41
  %45 = load i32, ptr %3, align 4
  ret i32 %45

46:                                               ; preds = %38
  unreachable
}

; Function Attrs: nounwind uwtable
define dso_local void @bf_init(ptr noundef %0, ptr noundef %1) #0 {
  %3 = alloca ptr, align 8
  %4 = alloca ptr, align 8
  store ptr %0, ptr %3, align 8, !tbaa !7
  store ptr %1, ptr %4, align 8, !tbaa !12
  %5 = load ptr, ptr %3, align 8, !tbaa !7
  %6 = load ptr, ptr %4, align 8, !tbaa !12
  %7 = getelementptr inbounds nuw %struct.bf_t, ptr %6, i32 0, i32 0
  store ptr %5, ptr %7, align 8, !tbaa !22
  %8 = load ptr, ptr %4, align 8, !tbaa !12
  %9 = getelementptr inbounds nuw %struct.bf_t, ptr %8, i32 0, i32 1
  store i32 0, ptr %9, align 8, !tbaa !23
  %10 = load ptr, ptr %4, align 8, !tbaa !12
  %11 = getelementptr inbounds nuw %struct.bf_t, ptr %10, i32 0, i32 2
  store i64 -9223372036854775808, ptr %11, align 8, !tbaa !24
  %12 = load ptr, ptr %4, align 8, !tbaa !12
  %13 = getelementptr inbounds nuw %struct.bf_t, ptr %12, i32 0, i32 3
  store i64 0, ptr %13, align 8, !tbaa !25
  %14 = load ptr, ptr %4, align 8, !tbaa !12
  %15 = getelementptr inbounds nuw %struct.bf_t, ptr %14, i32 0, i32 4
  store ptr null, ptr %15, align 8, !tbaa !26
  ret void
}

; Function Attrs: nounwind uwtable
define dso_local i32 @bf_mul_ui(ptr noundef %0, ptr noundef %1, i64 noundef %2, i64 noundef %3, i32 noundef %4) #0 {
  %6 = alloca ptr, align 8
  %7 = alloca ptr, align 8
  %8 = alloca i64, align 8
  %9 = alloca i64, align 8
  %10 = alloca i32, align 4
  %11 = alloca %struct.bf_t, align 8
  %12 = alloca i32, align 4
  store ptr %0, ptr %6, align 8, !tbaa !12
  store ptr %1, ptr %7, align 8, !tbaa !12
  store i64 %2, ptr %8, align 8, !tbaa !27
  store i64 %3, ptr %9, align 8, !tbaa !27
  store i32 %4, ptr %10, align 4, !tbaa !29
  call void @llvm.lifetime.start.p0(i64 40, ptr %11) #10
  call void @llvm.lifetime.start.p0(i64 4, ptr %12) #10
  %13 = load ptr, ptr %6, align 8, !tbaa !12
  %14 = getelementptr inbounds nuw %struct.bf_t, ptr %13, i32 0, i32 0
  %15 = load ptr, ptr %14, align 8, !tbaa !22
  call void @bf_init(ptr noundef %15, ptr noundef %11)
  %16 = load i64, ptr %8, align 8, !tbaa !27
  %17 = call i32 @bf_set_ui(ptr noundef %11, i64 noundef %16)
  store i32 %17, ptr %12, align 4, !tbaa !29
  %18 = load ptr, ptr %6, align 8, !tbaa !12
  %19 = load ptr, ptr %7, align 8, !tbaa !12
  %20 = load i64, ptr %9, align 8, !tbaa !27
  %21 = load i32, ptr %10, align 4, !tbaa !29
  %22 = call i32 @bf_mul(ptr noundef %18, ptr noundef %19, ptr noundef %11, i64 noundef %20, i32 noundef %21)
  %23 = load i32, ptr %12, align 4, !tbaa !29
  %24 = or i32 %23, %22
  store i32 %24, ptr %12, align 4, !tbaa !29
  call void @bf_delete(ptr noundef %11)
  %25 = load i32, ptr %12, align 4, !tbaa !29
  call void @llvm.lifetime.end.p0(i64 4, ptr %12) #10
  call void @llvm.lifetime.end.p0(i64 40, ptr %11) #10
  ret i32 %25
}