; Function Attrs: nounwind uwtable
define dso_local range(i32 0, 64) i32 @bf_mul_ui(ptr noundef %0, ptr noundef captures(address) %1, i64 noundef %2, i64 noundef %3, i32 noundef %4) local_unnamed_addr #2 {
  %6 = alloca %struct.bf_t, align 8
  call void @llvm.lifetime.start.p0(i64 40, ptr nonnull %6) #21
  %7 = load ptr, ptr %0, align 8, !tbaa !28
  store ptr %7, ptr %6, align 8, !tbaa !28
  %8 = getelementptr inbounds nuw i8, ptr %6, i64 8
  %9 = getelementptr inbounds nuw i8, ptr %6, i64 16
  %10 = getelementptr inbounds nuw i8, ptr %6, i64 24
  call void @llvm.memset.p0.i64(ptr noundef nonnull align 8 dereferenceable(16) %10, i8 0, i64 16, i1 false)
  store i32 0, ptr %8, align 8, !tbaa !30
  %11 = icmp eq i64 %2, 0
  br i1 %11, label %bf_set_ui.exit, label %12

12:                                               ; preds = %5
  %.val.i16.i = load ptr, ptr %7, align 8, !tbaa !19
  %13 = getelementptr i8, ptr %7, i64 8
  %.val13.i17.i = load ptr, ptr %13, align 8, !tbaa !7
  %14 = tail call ptr %.val13.i17.i(ptr noundef %.val.i16.i, ptr noundef null, i64 noundef 8) #21
  %15 = icmp eq ptr %14, null
  br i1 %15, label %.thread13, label %18

.thread13:                                        ; preds = %12
  store i64 9223372036854775807, ptr %9, align 8, !tbaa !31
  store i32 0, ptr %8, align 8, !tbaa !30
  %16 = call i32 @bf_mul(ptr noundef nonnull %0, ptr noundef %1, ptr noundef nonnull %6, i64 noundef %3, i32 noundef %4)
  br label %bf_delete.exit

bf_set_ui.exit:                                   ; preds = %5
  store i64 -9223372036854775808, ptr %9, align 8, !tbaa !31
  %17 = call i32 @bf_mul(ptr noundef nonnull %0, ptr noundef %1, ptr noundef nonnull %6, i64 noundef %3, i32 noundef %4)
  br label %bf_delete.exit

18:                                               ; preds = %12
  %19 = getelementptr inbounds nuw i8, ptr %6, i64 32
  store ptr %14, ptr %19, align 8, !tbaa !29
  store i64 1, ptr %10, align 8, !tbaa !32
  %20 = tail call range(i64 0, 65) i64 @llvm.ctlz.i64(i64 range(i64 1, 0) %2, i1 true)
  %21 = shl i64 %2, %20
  store i64 %21, ptr %14, align 8, !tbaa !33
  %22 = sub nuw nsw i64 64, %20
  store i64 %22, ptr %9, align 8, !tbaa !31
  %23 = call i32 @bf_mul(ptr noundef nonnull %0, ptr noundef %1, ptr noundef nonnull %6, i64 noundef %3, i32 noundef %4)
  %.val.i = load ptr, ptr %7, align 8, !tbaa !19
  %24 = getelementptr i8, ptr %7, i64 8
  %.val7.i = load ptr, ptr %24, align 8, !tbaa !7
  %25 = call ptr %.val7.i(ptr noundef %.val.i, ptr noundef nonnull %14, i64 noundef 0) #21
  br label %bf_delete.exit

bf_delete.exit:                                   ; preds = %bf_set_ui.exit, %.thread13, %18
  %26 = phi i32 [ %23, %18 ], [ %16, %.thread13 ], [ %17, %bf_set_ui.exit ]
  %.013.i10 = phi i32 [ 0, %18 ], [ 32, %.thread13 ], [ 0, %bf_set_ui.exit ]
  %27 = or i32 %26, %.013.i10
  call void @llvm.lifetime.end.p0(i64 40, ptr nonnull %6) #21
  ret i32 %27
}